; Function Attrs: mustprogress null_pointer_is_valid sspstrong uwtable
define void @_ZN10ExtArgBool12defaultValueEv(ptr dead_on_unwind noalias writable writeonly sret(%class.QString) align 8 captures(none) initializes((0, 24)) %0, ptr noundef readonly align 8 captures(none) dereferenceable_or_null(96) %1) unnamed_addr #0 align 2 personality ptr @__gxx_personality_v0 {
  %3 = getelementptr inbounds nuw i8, ptr %1, i64 40
  %4 = load ptr, ptr %3, align 8
  %.not.i = icmp eq ptr %4, null
  br i1 %.not.i, label %.critedge10, label %_ZN10ExtArgBool11defaultBoolEv.exit

_ZN10ExtArgBool11defaultBoolEv.exit:              ; preds = %2
  %5 = getelementptr inbounds nuw i8, ptr %4, i64 96
  %6 = load ptr, ptr %5, align 8
  %7 = tail call zeroext i1 @extcap_complex_get_bool(ptr noundef %6)
  %spec.select = select i1 %7, ptr @.str.7, ptr @.str.6
  %spec.select30 = select i1 %7, i64 4, i64 5
  br label %.critedge10

.critedge10:                                      ; preds = %_ZN10ExtArgBool11defaultBoolEv.exit, %2
  %.str.6.sink = phi ptr [ @.str.6, %2 ], [ %spec.select, %_ZN10ExtArgBool11defaultBoolEv.exit ]
  %.sink = phi i64 [ 5, %2 ], [ %spec.select30, %_ZN10ExtArgBool11defaultBoolEv.exit ]
  store ptr null, ptr %0, align 8
  %8 = getelementptr inbounds nuw i8, ptr %0, i64 8
  store ptr %.str.6.sink, ptr %8, align 8
  %9 = getelementptr inbounds nuw i8, ptr %0, i64 16
  store i64 %.sink, ptr %9, align 8
  ret void
}